target datalayout = "e-m:e-p270:32:32-p271:32:32-p272:64:64-i64:64-i128:128-f80:128-n8:16:32:64-S128"
target triple = "x86_64-pc-linux-gnu"

%struct.WOLFSSL = type <{ ptr, ptr, ptr, ptr, [48 x i8], [48 x i8], ptr, ptr, ptr, ptr, ptr, ptr, ptr, ptr, ptr, ptr, ptr, ptr, ptr, i32, [4 x i8], %struct.WOLFSSL_CIPHER, ptr, %struct.Ciphers, %struct.Ciphers, [8 x i8], %struct.Buffers, ptr, ptr, %struct.WOLFSSL_ALERT_HISTORY, %struct.WOLFSSL_ALERT, i32, i32, i32, i32, i32, i32, i32, i16, [2 x i8], i32, i8, %struct.RecordLayerHeader, %struct.MsgsReceived, %struct.ProtocolVersion, %struct.ProtocolVersion, %struct.CipherSpecs, [2 x i8], %struct.Keys, %struct.Options, ptr, i8, i8, i16, [10 x i16], i8, i8, i16, i16, [38 x i8], i32, i32, [4 x i8], ptr, i8, i8, [6 x i8], ptr, ptr, i16, i8, i8, i32, i8, [3 x i8], i32, %struct.OneTimeAuth, ptr }>
%struct.WOLFSSL_CIPHER = type { i8, i8, ptr }
%struct.Ciphers = type { ptr, ptr, ptr, ptr, i8, i8 }
%struct.Buffers = type { %struct.bufferStatic, %struct.bufferStatic, %struct.WOLFSSL_BUFFER_INFO, %struct.WOLFSSL_BUFFER_INFO, %struct.WOLFSSL_BUFFER_INFO, %struct.WOLFSSL_BUFFER_INFO, i32, i32, i8, i8, i8, i8, %struct.WOLFSSL_BUFFER_INFO, %struct.WOLFSSL_BUFFER_INFO, %struct.WOLFSSL_BUFFER_INFO, %struct.WOLFSSL_BUFFER_INFO, ptr, ptr, ptr, i8, i8, i32, i32, ptr, i32, [1 x ptr] }
%struct.bufferStatic = type { [5 x i8], ptr, i32, i32, i32, i8, i8 }
%struct.WOLFSSL_BUFFER_INFO = type { ptr, i32 }
%struct.WOLFSSL_ALERT_HISTORY = type { %struct.WOLFSSL_ALERT, %struct.WOLFSSL_ALERT }
%struct.WOLFSSL_ALERT = type { i32, i32 }
%struct.RecordLayerHeader = type { i8, i8, i8, [2 x i8] }
%struct.MsgsReceived = type { i32 }
%struct.ProtocolVersion = type { i8, i8 }
%struct.CipherSpecs = type { i16, i16, i16, i16, i8, i8, i8, i8, i8, i8, i8, i8 }
%struct.Keys = type { [64 x i8], [64 x i8], [32 x i8], [32 x i8], [16 x i8], [16 x i8], [8 x i8], [12 x i8], [12 x i8], i32, i32, i32, i32, i32, i32, i8, i8, i8, i8 }
%struct.Options = type { i64, i64, i8, i8, i8, i8, i8, i8, i8, i8, i8, i8, i8, i8, i8, i8, i8, i8, i8, i8, i8, i8, i8, i16, i16, i16, i16, i16, i8 }
%struct.OneTimeAuth = type { ptr, i8 }
%struct.HandShakeHeader = type { i8, [3 x i8] }
%struct.SignatureAlgorithms = type { ptr, i16, [0 x i8] }

; Function Attrs: inlinehint nounwind uwtable
define internal void @c32to24(i32 noundef %0, ptr noundef %1) #4 {
  %3 = alloca i32, align 4
  %4 = alloca ptr, align 8
  store i32 %0, ptr %3, align 4, !tbaa !10
  store ptr %1, ptr %4, align 8, !tbaa !8
  %5 = load i32, ptr %3, align 4, !tbaa !10
  %6 = lshr i32 %5, 16
  %7 = and i32 %6, 255
  %8 = trunc i32 %7 to i8
  %9 = load ptr, ptr %4, align 8, !tbaa !8
  %10 = getelementptr inbounds i8, ptr %9, i64 0
  store i8 %8, ptr %10, align 1, !tbaa !58
  %11 = load i32, ptr %3, align 4, !tbaa !10
  %12 = lshr i32 %11, 8
  %13 = and i32 %12, 255
  %14 = trunc i32 %13 to i8
  %15 = load ptr, ptr %4, align 8, !tbaa !8
  %16 = getelementptr inbounds i8, ptr %15, i64 1
  store i8 %14, ptr %16, align 1, !tbaa !58
  %17 = load i32, ptr %3, align 4, !tbaa !10
  %18 = and i32 %17, 255
  %19 = trunc i32 %18 to i8
  %20 = load ptr, ptr %4, align 8, !tbaa !8
  %21 = getelementptr inbounds i8, ptr %20, i64 2
  store i8 %19, ptr %21, align 1, !tbaa !58
  ret void
}

; Function Attrs: inlinehint nounwind uwtable
define internal void @c16toa(i16 noundef zeroext %0, ptr noundef %1) #4 {
  %3 = alloca i16, align 2
  %4 = alloca ptr, align 8
  store i16 %0, ptr %3, align 2, !tbaa !66
  store ptr %1, ptr %4, align 8, !tbaa !8
  %5 = load i16, ptr %3, align 2, !tbaa !66
  %6 = zext i16 %5 to i32
  %7 = ashr i32 %6, 8
  %8 = and i32 %7, 255
  %9 = trunc i32 %8 to i8
  %10 = load ptr, ptr %4, align 8, !tbaa !8
  %11 = getelementptr inbounds i8, ptr %10, i64 0
  store i8 %9, ptr %11, align 1, !tbaa !58
  %12 = load i16, ptr %3, align 2, !tbaa !66
  %13 = zext i16 %12 to i32
  %14 = and i32 %13, 255
  %15 = trunc i32 %14 to i8
  %16 = load ptr, ptr %4, align 8, !tbaa !8
  %17 = getelementptr inbounds i8, ptr %16, i64 1
  store i8 %15, ptr %17, align 1, !tbaa !58
  ret void
}

; Function Attrs: nounwind uwtable
define internal void @AddTls13HandShakeHeader(ptr noundef %0, i32 noundef %1, i32 noundef %2, i32 noundef %3, i8 noundef zeroext %4, ptr noundef %5) #0 {
  %7 = alloca ptr, align 8
  %8 = alloca i32, align 4
  %9 = alloca i32, align 4
  %10 = alloca i32, align 4
  %11 = alloca i8, align 1
  %12 = alloca ptr, align 8
  %13 = alloca ptr, align 8
  store ptr %0, ptr %7, align 8, !tbaa !8
  store i32 %1, ptr %8, align 4, !tbaa !10
  store i32 %2, ptr %9, align 4, !tbaa !10
  store i32 %3, ptr %10, align 4, !tbaa !10
  store i8 %4, ptr %11, align 1, !tbaa !58
  store ptr %5, ptr %12, align 8, !tbaa !3
  call void @llvm.lifetime.start.p0(i64 8, ptr %13) #8
  %14 = load ptr, ptr %7, align 8, !tbaa !8
  store ptr %14, ptr %13, align 8, !tbaa !109
  %15 = load i8, ptr %11, align 1, !tbaa !58
  %16 = load ptr, ptr %13, align 8, !tbaa !109
  %17 = getelementptr inbounds nuw %struct.HandShakeHeader, ptr %16, i32 0, i32 0
  store i8 %15, ptr %17, align 1, !tbaa !111
  %18 = load i32, ptr %8, align 4, !tbaa !10
  %19 = load ptr, ptr %13, align 8, !tbaa !109
  %20 = getelementptr inbounds nuw %struct.HandShakeHeader, ptr %19, i32 0, i32 1
  %21 = getelementptr inbounds [3 x i8], ptr %20, i64 0, i64 0
  call void @c32to24(i32 noundef %18, ptr noundef %21)
  call void @llvm.lifetime.end.p0(i64 8, ptr %13) #8
  ret void
}

; Function Attrs: nounwind uwtable
define internal void @AddTls13RecordHeader(ptr noundef %0, i32 noundef %1, i8 noundef zeroext %2, ptr noundef %3) #0 {
  %5 = alloca ptr, align 8
  %6 = alloca i32, align 4
  %7 = alloca i8, align 1
  %8 = alloca ptr, align 8
  %9 = alloca ptr, align 8
  store ptr %0, ptr %5, align 8, !tbaa !8
  store i32 %1, ptr %6, align 4, !tbaa !10
  store i8 %2, ptr %7, align 1, !tbaa !58
  store ptr %3, ptr %8, align 8, !tbaa !3
  call void @llvm.lifetime.start.p0(i64 8, ptr %9) #8
  %10 = load ptr, ptr %5, align 8, !tbaa !8
  store ptr %10, ptr %9, align 8, !tbaa !83
  %11 = load i8, ptr %7, align 1, !tbaa !58
  %12 = load ptr, ptr %9, align 8, !tbaa !83
  %13 = getelementptr inbounds nuw %struct.RecordLayerHeader, ptr %12, i32 0, i32 0
  store i8 %11, ptr %13, align 1, !tbaa !85
  %14 = load ptr, ptr %8, align 8, !tbaa !3
  %15 = getelementptr inbounds nuw %struct.WOLFSSL, ptr %14, i32 0, i32 44
  %16 = getelementptr inbounds nuw %struct.ProtocolVersion, ptr %15, i32 0, i32 0
  %17 = load i8, ptr %16, align 2, !tbaa !86
  %18 = load ptr, ptr %9, align 8, !tbaa !83
  %19 = getelementptr inbounds nuw %struct.RecordLayerHeader, ptr %18, i32 0, i32 1
  store i8 %17, ptr %19, align 1, !tbaa !87
  %20 = load ptr, ptr %9, align 8, !tbaa !83
  %21 = getelementptr inbounds nuw %struct.RecordLayerHeader, ptr %20, i32 0, i32 2
  store i8 3, ptr %21, align 1, !tbaa !88
  %22 = load i32, ptr %6, align 4, !tbaa !10
  %23 = trunc i32 %22 to i16
  %24 = load ptr, ptr %9, align 8, !tbaa !83
  %25 = getelementptr inbounds nuw %struct.RecordLayerHeader, ptr %24, i32 0, i32 3
  %26 = getelementptr inbounds [2 x i8], ptr %25, i64 0, i64 0
  call void @c16toa(i16 noundef zeroext %23, ptr noundef %26)
  call void @llvm.lifetime.end.p0(i64 8, ptr %9) #8
  ret void
}

; Function Attrs: nounwind uwtable
define internal void @AddTls13Headers(ptr noundef %0, i32 noundef %1, i8 noundef zeroext %2, ptr noundef %3) #0 {
  %5 = alloca ptr, align 8
  %6 = alloca i32, align 4
  %7 = alloca i8, align 1
  %8 = alloca ptr, align 8
  %9 = alloca i32, align 4
  %10 = alloca i32, align 4
  store ptr %0, ptr %5, align 8, !tbaa !8
  store i32 %1, ptr %6, align 4, !tbaa !10
  store i8 %2, ptr %7, align 1, !tbaa !58
  store ptr %3, ptr %8, align 8, !tbaa !3
  call void @llvm.lifetime.start.p0(i64 4, ptr %9) #8
  store i32 4, ptr %9, align 4, !tbaa !10
  call void @llvm.lifetime.start.p0(i64 4, ptr %10) #8
  store i32 5, ptr %10, align 4, !tbaa !10
  %11 = load ptr, ptr %5, align 8, !tbaa !8
  %12 = load i32, ptr %6, align 4, !tbaa !10
  %13 = load i32, ptr %9, align 4, !tbaa !10
  %14 = add i32 %12, %13
  %15 = load ptr, ptr %8, align 8, !tbaa !3
  call void @AddTls13RecordHeader(ptr noundef %11, i32 noundef %14, i8 noundef zeroext 22, ptr noundef %15)
  %16 = load ptr, ptr %5, align 8, !tbaa !8
  %17 = load i32, ptr %10, align 4, !tbaa !10
  %18 = zext i32 %17 to i64
  %19 = getelementptr inbounds nuw i8, ptr %16, i64 %18
  %20 = load i32, ptr %6, align 4, !tbaa !10
  %21 = load i32, ptr %6, align 4, !tbaa !10
  %22 = load i8, ptr %7, align 1, !tbaa !58
  %23 = load ptr, ptr %8, align 8, !tbaa !3
  call void @AddTls13HandShakeHeader(ptr noundef %19, i32 noundef %20, i32 noundef 0, i32 noundef %21, i8 noundef zeroext %22, ptr noundef %23)
  call void @llvm.lifetime.end.p0(i64 4, ptr %10) #8
  call void @llvm.lifetime.end.p0(i64 4, ptr %9) #8
  ret void
}

; Function Attrs: nounwind uwtable
define internal i32 @SendTls13CertificateRequest(ptr noundef %0, ptr noundef %1, i32 noundef %2) #0 {
  %4 = alloca i32, align 4
  %5 = alloca ptr, align 8
  %6 = alloca ptr, align 8
  %7 = alloca i32, align 4
  %8 = alloca ptr, align 8
  %9 = alloca i32, align 4
  %10 = alloca i32, align 4
  %11 = alloca i32, align 4
  %12 = alloca i32, align 4
  %13 = alloca i16, align 2
  %14 = alloca ptr, align 8
  %15 = alloca i32, align 4
  store ptr %0, ptr %5, align 8, !tbaa !3
  store ptr %1, ptr %6, align 8, !tbaa !8
  store i32 %2, ptr %7, align 4, !tbaa !10
  call void @llvm.lifetime.start.p0(i64 8, ptr %8) #8
  call void @llvm.lifetime.start.p0(i64 4, ptr %9) #8
  call void @llvm.lifetime.start.p0(i64 4, ptr %10) #8
  call void @llvm.lifetime.start.p0(i64 4, ptr %11) #8
  call void @llvm.lifetime.start.p0(i64 4, ptr %12) #8
  call void @llvm.lifetime.start.p0(i64 2, ptr %13) #8
  store i16 0, ptr %13, align 2, !tbaa !66
  call void @llvm.lifetime.start.p0(i64 8, ptr %14) #8
  br label %16

16:                                               ; preds = %3
  br label %17

17:                                               ; preds = %16
  br label %18

18:                                               ; preds = %17
  br label %19

19:                                               ; preds = %18
  br label %20

20:                                               ; preds = %19
  br label %21

21:                                               ; preds = %20
  %22 = load ptr, ptr %5, align 8, !tbaa !3
  %23 = getelementptr inbounds nuw %struct.WOLFSSL, ptr %22, i32 0, i32 49
  %24 = getelementptr inbounds nuw %struct.Options, ptr %23, i32 0, i32 2
  store i8 1, ptr %24, align 8, !tbaa !113
  %25 = load ptr, ptr %5, align 8, !tbaa !3
  %26 = getelementptr inbounds nuw %struct.WOLFSSL, ptr %25, i32 0, i32 49
  %27 = getelementptr inbounds nuw %struct.Options, ptr %26, i32 0, i32 1
  %28 = load i64, ptr %27, align 8
  %29 = lshr i64 %28, 4
  %30 = and i64 %29, 3
  %31 = trunc i64 %30 to i16
  %32 = zext i16 %31 to i32
  %33 = icmp ne i32 %32, 0
  br i1 %33, label %34, label %35

34:                                               ; preds = %21
  store i32 -344, ptr %4, align 4
  store i32 1, ptr %15, align 4
  br label %178

35:                                               ; preds = %21
  %36 = load ptr, ptr %5, align 8, !tbaa !3
  %37 = getelementptr inbounds nuw %struct.WOLFSSL, ptr %36, i32 0, i32 26
  %38 = getelementptr inbounds nuw %struct.Buffers, ptr %37, i32 0, i32 21
  %39 = load i32, ptr %38, align 4, !tbaa !228
  call void @InitSuitesHashSigAlgo(ptr noundef null, i32 noundef 31, i32 noundef 1, i32 noundef %39, ptr noundef %13)
  %40 = load ptr, ptr %5, align 8, !tbaa !3
  %41 = load i16, ptr %13, align 2, !tbaa !66
  %42 = load ptr, ptr %5, align 8, !tbaa !3
  %43 = getelementptr inbounds nuw %struct.WOLFSSL, ptr %42, i32 0, i32 12
  %44 = load ptr, ptr %43, align 16, !tbaa !46
  %45 = call ptr @TLSX_SignatureAlgorithms_New(ptr noundef %40, i16 noundef zeroext %41, ptr noundef %44)
  store ptr %45, ptr %14, align 8, !tbaa !229
  %46 = load ptr, ptr %14, align 8, !tbaa !229
  %47 = icmp eq ptr %46, null
  br i1 %47, label %48, label %49

48:                                               ; preds = %35
  store i32 -303, ptr %4, align 4
  store i32 1, ptr %15, align 4
  br label %178

49:                                               ; preds = %35
  %50 = load ptr, ptr %14, align 8, !tbaa !229
  %51 = getelementptr inbounds nuw %struct.SignatureAlgorithms, ptr %50, i32 0, i32 2
  %52 = getelementptr inbounds [0 x i8], ptr %51, i64 0, i64 0
  %53 = load ptr, ptr %5, align 8, !tbaa !3
  %54 = getelementptr inbounds nuw %struct.WOLFSSL, ptr %53, i32 0, i32 26
  %55 = getelementptr inbounds nuw %struct.Buffers, ptr %54, i32 0, i32 21
  %56 = load i32, ptr %55, align 4, !tbaa !228
  call void @InitSuitesHashSigAlgo(ptr noundef %52, i32 noundef 31, i32 noundef 1, i32 noundef %56, ptr noundef %13)
  %57 = load ptr, ptr %5, align 8, !tbaa !3
  %58 = getelementptr inbounds nuw %struct.WOLFSSL, ptr %57, i32 0, i32 77
  %59 = load ptr, ptr %14, align 8, !tbaa !229
  %60 = load ptr, ptr %5, align 8, !tbaa !3
  %61 = getelementptr inbounds nuw %struct.WOLFSSL, ptr %60, i32 0, i32 12
  %62 = load ptr, ptr %61, align 16, !tbaa !46
  %63 = call i32 @TLSX_Push(ptr noundef %58, i32 noundef 13, ptr noundef %59, ptr noundef %62)
  store i32 %63, ptr %9, align 4, !tbaa !10
  %64 = load i32, ptr %9, align 4, !tbaa !10
  %65 = icmp ne i32 %64, 0
  br i1 %65, label %66, label %72

66:                                               ; preds = %49
  %67 = load ptr, ptr %14, align 8, !tbaa !229
  %68 = load ptr, ptr %5, align 8, !tbaa !3
  %69 = getelementptr inbounds nuw %struct.WOLFSSL, ptr %68, i32 0, i32 12
  %70 = load ptr, ptr %69, align 16, !tbaa !46
  call void @TLSX_SignatureAlgorithms_FreeAll(ptr noundef %67, ptr noundef %70)
  %71 = load i32, ptr %9, align 4, !tbaa !10
  store i32 %71, ptr %4, align 4
  store i32 1, ptr %15, align 4
  br label %178

72:                                               ; preds = %49
  store i32 9, ptr %11, align 4, !tbaa !10
  %73 = load i32, ptr %7, align 4, !tbaa !10
  %74 = add i32 1, %73
  %75 = trunc i32 %74 to i16
  %76 = zext i16 %75 to i32
  store i32 %76, ptr %12, align 4, !tbaa !10
  %77 = load ptr, ptr %5, align 8, !tbaa !3
  %78 = call i32 @TLSX_GetRequestSize(ptr noundef %77, i8 noundef zeroext 13, ptr noundef %12)
  store i32 %78, ptr %9, align 4, !tbaa !10
  %79 = load i32, ptr %9, align 4, !tbaa !10
  %80 = icmp ne i32 %79, 0
  br i1 %80, label %81, label %83

81:                                               ; preds = %72
  %82 = load i32, ptr %9, align 4, !tbaa !10
  store i32 %82, ptr %4, align 4
  store i32 1, ptr %15, align 4
  br label %178

83:                                               ; preds = %72
  %84 = load i32, ptr %11, align 4, !tbaa !10
  %85 = load i32, ptr %12, align 4, !tbaa !10
  %86 = add i32 %84, %85
  store i32 %86, ptr %10, align 4, !tbaa !10
  %87 = load i32, ptr %10, align 4, !tbaa !10
  %88 = add nsw i32 %87, 102
  store i32 %88, ptr %10, align 4, !tbaa !10
  %89 = load ptr, ptr %5, align 8, !tbaa !3
  %90 = load i32, ptr %10, align 4, !tbaa !10
  %91 = call i32 @CheckAvailableSize(ptr noundef %89, i32 noundef %90)
  store i32 %91, ptr %9, align 4, !tbaa !10
  %92 = icmp ne i32 %91, 0
  br i1 %92, label %93, label %95

93:                                               ; preds = %83
  %94 = load i32, ptr %9, align 4, !tbaa !10
  store i32 %94, ptr %4, align 4
  store i32 1, ptr %15, align 4
  br label %178

95:                                               ; preds = %83
  %96 = load ptr, ptr %5, align 8, !tbaa !3
  %97 = call ptr @GetOutputBuffer(ptr noundef %96)
  store ptr %97, ptr %8, align 8, !tbaa !8
  %98 = load ptr, ptr %8, align 8, !tbaa !8
  %99 = load i32, ptr %12, align 4, !tbaa !10
  %100 = load ptr, ptr %5, align 8, !tbaa !3
  call void @AddTls13Headers(ptr noundef %98, i32 noundef %99, i8 noundef zeroext 13, ptr noundef %100)
  %101 = load i32, ptr %7, align 4, !tbaa !10
  %102 = trunc i32 %101 to i8
  %103 = load ptr, ptr %8, align 8, !tbaa !8
  %104 = load i32, ptr %11, align 4, !tbaa !10
  %105 = add i32 %104, 1
  store i32 %105, ptr %11, align 4, !tbaa !10
  %106 = zext i32 %104 to i64
  %107 = getelementptr inbounds nuw i8, ptr %103, i64 %106
  store i8 %102, ptr %107, align 1, !tbaa !58
  %108 = load i32, ptr %7, align 4, !tbaa !10
  %109 = icmp ne i32 %108, 0
  br i1 %109, label %110, label %121

110:                                              ; preds = %95
  %111 = load ptr, ptr %8, align 8, !tbaa !8
  %112 = load i32, ptr %11, align 4, !tbaa !10
  %113 = zext i32 %112 to i64
  %114 = getelementptr inbounds nuw i8, ptr %111, i64 %113
  %115 = load ptr, ptr %6, align 8, !tbaa !8
  %116 = load i32, ptr %7, align 4, !tbaa !10
  %117 = zext i32 %116 to i64
  call void @llvm.memcpy.p0.p0.i64(ptr align 1 %114, ptr align 1 %115, i64 %117, i1 false)
  %118 = load i32, ptr %7, align 4, !tbaa !10
  %119 = load i32, ptr %11, align 4, !tbaa !10
  %120 = add i32 %119, %118
  store i32 %120, ptr %11, align 4, !tbaa !10
  br label %121

121:                                              ; preds = %110, %95
  store i32 0, ptr %12, align 4, !tbaa !10
  %122 = load ptr, ptr %5, align 8, !tbaa !3
  %123 = load ptr, ptr %8, align 8, !tbaa !8
  %124 = load i32, ptr %11, align 4, !tbaa !10
  %125 = zext i32 %124 to i64
  %126 = getelementptr inbounds nuw i8, ptr %123, i64 %125
  %127 = call i32 @TLSX_WriteRequest(ptr noundef %122, ptr noundef %126, i8 noundef zeroext 13, ptr noundef %12)
  store i32 %127, ptr %9, align 4, !tbaa !10
  %128 = load i32, ptr %9, align 4, !tbaa !10
  %129 = icmp ne i32 %128, 0
  br i1 %129, label %130, label %132

130:                                              ; preds = %121
  %131 = load i32, ptr %9, align 4, !tbaa !10
  store i32 %131, ptr %4, align 4
  store i32 1, ptr %15, align 4
  br label %178

132:                                              ; preds = %121
  %133 = load i32, ptr %12, align 4, !tbaa !10
  %134 = load i32, ptr %11, align 4, !tbaa !10
  %135 = add i32 %134, %133
  store i32 %135, ptr %11, align 4, !tbaa !10
  %136 = load ptr, ptr %5, align 8, !tbaa !3
  %137 = load ptr, ptr %8, align 8, !tbaa !8
  %138 = load i32, ptr %10, align 4, !tbaa !10
  %139 = load ptr, ptr %8, align 8, !tbaa !8
  %140 = getelementptr inbounds i8, ptr %139, i64 5
  %141 = load i32, ptr %11, align 4, !tbaa !10
  %142 = sub i32 %141, 5
  %143 = call i32 @BuildTls13Message(ptr noundef %136, ptr noundef %137, i32 noundef %138, ptr noundef %140, i32 noundef %142, i32 noundef 22, i32 noundef 1, i32 noundef 0, i32 noundef 0)
  store i32 %143, ptr %10, align 4, !tbaa !10
  %144 = load i32, ptr %10, align 4, !tbaa !10
  %145 = icmp slt i32 %144, 0
  br i1 %145, label %146, label %148

146:                                              ; preds = %132
  %147 = load i32, ptr %10, align 4, !tbaa !10
  store i32 %147, ptr %4, align 4
  store i32 1, ptr %15, align 4
  br label %178

148:                                              ; preds = %132
  %149 = load i32, ptr %10, align 4, !tbaa !10
  %150 = load ptr, ptr %5, align 8, !tbaa !3
  %151 = getelementptr inbounds nuw %struct.WOLFSSL, ptr %150, i32 0, i32 26
  %152 = getelementptr inbounds nuw %struct.Buffers, ptr %151, i32 0, i32 1
  %153 = getelementptr inbounds nuw %struct.bufferStatic, ptr %152, i32 0, i32 2
  %154 = load i32, ptr %153, align 16, !tbaa !124
  %155 = add i32 %154, %149
  store i32 %155, ptr %153, align 16, !tbaa !124
  %156 = load ptr, ptr %5, align 8, !tbaa !3
  %157 = getelementptr inbounds nuw %struct.WOLFSSL, ptr %156, i32 0, i32 49
  %158 = getelementptr inbounds nuw %struct.Options, ptr %157, i32 0, i32 2
  store i8 0, ptr %158, align 8, !tbaa !113
  %159 = load ptr, ptr %5, align 8, !tbaa !3
  %160 = getelementptr inbounds nuw %struct.WOLFSSL, ptr %159, i32 0, i32 49
  %161 = getelementptr inbounds nuw %struct.Options, ptr %160, i32 0, i32 1
  %162 = load i64, ptr %161, align 8
  %163 = lshr i64 %162, 37
  %164 = and i64 %163, 1
  %165 = trunc i64 %164 to i16
  %166 = icmp ne i16 %165, 0
  br i1 %166, label %170, label %167

167:                                              ; preds = %148
  %168 = load ptr, ptr %5, align 8, !tbaa !3
  %169 = call i32 @SendBuffered(ptr noundef %168)
  store i32 %169, ptr %9, align 4, !tbaa !10
  br label %170

170:                                              ; preds = %167, %148
  br label %171

171:                                              ; preds = %170
  br label %172

172:                                              ; preds = %171
  br label %173

173:                                              ; preds = %172
  br label %174

174:                                              ; preds = %173
  br label %175

175:                                              ; preds = %174
  br label %176

176:                                              ; preds = %175
  %177 = load i32, ptr %9, align 4, !tbaa !10
  store i32 %177, ptr %4, align 4
  store i32 1, ptr %15, align 4
  br label %178

178:                                              ; preds = %176, %146, %130, %93, %81, %66, %48, %34
  call void @llvm.lifetime.end.p0(i64 8, ptr %14) #8
  call void @llvm.lifetime.end.p0(i64 2, ptr %13) #8
  call void @llvm.lifetime.end.p0(i64 4, ptr %12) #8
  call void @llvm.lifetime.end.p0(i64 4, ptr %11) #8
  call void @llvm.lifetime.end.p0(i64 4, ptr %10) #8
  call void @llvm.lifetime.end.p0(i64 4, ptr %9) #8
  call void @llvm.lifetime.end.p0(i64 8, ptr %8) #8
  %179 = load i32, ptr %4, align 4
  ret i32 %179
}