; Function Attrs: nounwind uwtable
define internal fastcc i32 @SendTls13CertificateRequest(ptr noundef nonnull initializes((1032, 1033)) %0) unnamed_addr #0 {
  %2 = alloca i32, align 4
  %3 = alloca i16, align 2
  call void @llvm.lifetime.start.p0(i64 4, ptr nonnull %2) #11
  call void @llvm.lifetime.start.p0(i64 2, ptr nonnull %3) #11
  store i16 0, ptr %3, align 2, !tbaa !119
  %4 = getelementptr inbounds nuw i8, ptr %0, i64 1032
  store i8 1, ptr %4, align 8, !tbaa !93
  %5 = getelementptr inbounds nuw i8, ptr %0, i64 1024
  %6 = load i64, ptr %5, align 8
  %7 = and i64 %6, 48
  %.not = icmp eq i64 %7, 0
  br i1 %.not, label %8, label %67

8:                                                ; preds = %1
  %9 = getelementptr inbounds nuw i8, ptr %0, i64 588
  %10 = load i32, ptr %9, align 4, !tbaa !187
  call void @InitSuitesHashSigAlgo(ptr noundef null, i32 noundef 31, i32 noundef 1, i32 noundef %10, ptr noundef nonnull %3) #11
  %11 = load i16, ptr %3, align 2, !tbaa !119
  %12 = getelementptr inbounds nuw i8, ptr %0, i64 176
  %13 = load ptr, ptr %12, align 16, !tbaa !43
  %14 = call ptr @TLSX_SignatureAlgorithms_New(ptr noundef nonnull %0, i16 noundef zeroext %11, ptr noundef %13) #11
  %15 = icmp eq ptr %14, null
  br i1 %15, label %67, label %16

16:                                               ; preds = %8
  %17 = getelementptr inbounds nuw i8, ptr %14, i64 10
  %18 = load i32, ptr %9, align 4, !tbaa !187
  call void @InitSuitesHashSigAlgo(ptr noundef nonnull %17, i32 noundef 31, i32 noundef 1, i32 noundef %18, ptr noundef nonnull %3) #11
  %19 = getelementptr inbounds nuw i8, ptr %0, i64 1224
  %20 = load ptr, ptr %12, align 16, !tbaa !43
  %21 = call i32 @TLSX_Push(ptr noundef nonnull %19, i32 noundef 13, ptr noundef nonnull %14, ptr noundef %20) #11
  %.not66 = icmp eq i32 %21, 0
  br i1 %.not66, label %24, label %22

22:                                               ; preds = %16
  %23 = load ptr, ptr %12, align 16, !tbaa !43
  call void @TLSX_SignatureAlgorithms_FreeAll(ptr noundef nonnull %14, ptr noundef %23) #11
  br label %67

24:                                               ; preds = %16
  store i32 1, ptr %2, align 4, !tbaa !109
  %25 = call i32 @TLSX_GetRequestSize(ptr noundef nonnull %0, i8 noundef zeroext 13, ptr noundef nonnull %2) #11
  %.not67 = icmp eq i32 %25, 0
  br i1 %.not67, label %26, label %67

26:                                               ; preds = %24
  %27 = load i32, ptr %2, align 4, !tbaa !109
  %28 = add i32 %27, 111
  %29 = call i32 @CheckAvailableSize(ptr noundef nonnull %0, i32 noundef %28) #11
  %.not68 = icmp eq i32 %29, 0
  br i1 %.not68, label %30, label %67

30:                                               ; preds = %26
  %31 = call ptr @GetOutputBuffer(ptr noundef nonnull %0) #11
  %32 = load i32, ptr %2, align 4, !tbaa !109
  %33 = getelementptr i8, ptr %0, i64 710
  %.val = load i8, ptr %33, align 2, !tbaa !73
  %34 = add i32 %32, 4
  store i8 22, ptr %31, align 1, !tbaa !74
  %35 = getelementptr inbounds nuw i8, ptr %31, i64 1
  store i8 %.val, ptr %35, align 1, !tbaa !75
  %36 = getelementptr inbounds nuw i8, ptr %31, i64 2
  store i8 3, ptr %36, align 1, !tbaa !76
  %37 = getelementptr inbounds nuw i8, ptr %31, i64 3
  %38 = lshr i32 %34, 8
  %39 = trunc i32 %38 to i8
  store i8 %39, ptr %37, align 1, !tbaa !57
  %40 = trunc i32 %34 to i8
  %41 = getelementptr inbounds nuw i8, ptr %31, i64 4
  store i8 %40, ptr %41, align 1, !tbaa !57
  %42 = getelementptr inbounds nuw i8, ptr %31, i64 5
  store i8 13, ptr %42, align 1, !tbaa !103
  %43 = getelementptr inbounds nuw i8, ptr %31, i64 6
  %44 = lshr i32 %32, 16
  %45 = trunc i32 %44 to i8
  store i8 %45, ptr %43, align 1, !tbaa !57
  %46 = lshr i32 %32, 8
  %47 = trunc i32 %46 to i8
  %48 = getelementptr inbounds nuw i8, ptr %31, i64 7
  store i8 %47, ptr %48, align 1, !tbaa !57
  %49 = trunc i32 %32 to i8
  %50 = getelementptr inbounds nuw i8, ptr %31, i64 8
  store i8 %49, ptr %50, align 1, !tbaa !57
  %51 = getelementptr inbounds nuw i8, ptr %31, i64 9
  store i8 0, ptr %51, align 1, !tbaa !57
  store i32 0, ptr %2, align 4, !tbaa !109
  %52 = getelementptr inbounds nuw i8, ptr %31, i64 10
  %53 = call i32 @TLSX_WriteRequest(ptr noundef nonnull %0, ptr noundef nonnull %52, i8 noundef zeroext 13, ptr noundef nonnull %2) #11
  %.not69 = icmp eq i32 %53, 0
  br i1 %.not69, label %54, label %67

54:                                               ; preds = %30
  %55 = load i32, ptr %2, align 4, !tbaa !109
  %56 = add i32 %55, 5
  %57 = call i32 @BuildTls13Message(ptr noundef nonnull %0, ptr noundef nonnull %31, i32 noundef %28, ptr noundef nonnull %42, i32 noundef %56, i32 noundef 22, i32 noundef 1, i32 noundef 0, i32 poison)
  %58 = icmp slt i32 %57, 0
  br i1 %58, label %67, label %59

59:                                               ; preds = %54
  %60 = getelementptr inbounds nuw i8, ptr %0, i64 400
  %61 = load i32, ptr %60, align 16, !tbaa !108
  %62 = add i32 %61, %57
  store i32 %62, ptr %60, align 16, !tbaa !108
  store i8 0, ptr %4, align 8, !tbaa !93
  %63 = load i64, ptr %5, align 8
  %64 = and i64 %63, 137438953472
  %.not70 = icmp eq i64 %64, 0
  br i1 %.not70, label %65, label %67

65:                                               ; preds = %59
  %66 = call i32 @SendBuffered(ptr noundef nonnull %0) #11
  br label %67

67:                                               ; preds = %59, %65, %54, %30, %26, %24, %8, %1, %22
  %.0 = phi i32 [ %21, %22 ], [ -344, %1 ], [ -303, %8 ], [ %25, %24 ], [ %29, %26 ], [ %53, %30 ], [ %57, %54 ], [ 0, %59 ], [ %66, %65 ]
  call void @llvm.lifetime.end.p0(i64 2, ptr nonnull %3) #11
  call void @llvm.lifetime.end.p0(i64 4, ptr nonnull %2) #11
  ret i32 %.0
}